(dp0
S'inputgain'
p1
(lp2
F1000.0
aS'none'
p3
ag3
asS'stop'
p4
(lp5
F-20.0
aF1500.0
asS'pol'
p6
(lp7
I1
aI1
aI1
aI1
asS'outputdac'
p8
(lp9
I1
aI2
aI5
aI0
aI0
aI0
aI0
aI0
aI0
aI0
aI0
aI0
aI0
aI0
aI0
aI0
asS'samplerate'
p10
F100000.0
sS'incr'
p11
(lp12
F5.0
aF1.0
asS'inputlabel'
p13
(lp14
S'I [nA]'
p15
ag3
ag3
asS'filename'
p16
S'W8D3 Wpomp2 device2 1400mK topgates swept at 20mV bias'
p17
sS'start'
p18
(lp19
F0.0
aF0.0
aF20.0
ag3
ag3
ag3
ag3
ag3
ag3
ag3
ag3
ag3
ag3
ag3
ag3
ag3
asS'num_samples'
p20
F1000.0
sS'input'
p21
(lp22
I1
aI0
aI0
as.