(dp0
S'checkTemp'
p1
I00
sS'inputgain'
p2
(lp3
S'1'
p4
aS''
p5
ag5
asS'pause1'
p6
S'0.5'
p7
sS'pause2'
p8
S'0.1'
p9
sS'normal'
p10
(lp11
I01
aI01
aI01
asS'stop'
p12
(lp13
S'10'
p14
ag5
ag5
aS'9e9'
p15
ag5
aS'200'
p16
ag5
ag5
ag5
ag5
ag5
ag5
ag5
ag5
ag5
ag5
asS'number_of_sweeps'
p17
I2
sS'dynamic'
p18
(lp19
I01
aI00
aI00
aI01
aI00
aI00
aI00
aI00
aI00
aI00
aI00
aI00
aI00
aI00
aI00
aI00
asS'incr'
p20
(lp21
S'2'
p22
ag5
ag5
aS'1e8'
p23
ag5
aS'20'
p24
ag5
ag5
ag5
ag5
ag5
ag5
ag5
ag5
ag5
ag5
asS'precision'
p25
S'0'
p26
sS'magrate'
p27
g26
sS'pol'
p28
(lp29
I1
aI1
aI1
aI1
asS'Magpos'
p30
I19
sS'outputdac'
p31
(lp32
I5
aI0
aI0
aI-1
aI0
aI13
aI0
aI0
aI-1
aI0
aI0
aI0
aI0
aI0
aI0
aI0
asS'log'
p33
(lp34
I00
aI00
aI00
asS'Laserpos'
p35
I19
sS'samplerate'
p36
S'100000'
p37
sS'MWpos'
p38
I17
sS'number_of_measurements'
p39
I1
sS'checkMW'
p40
I01
sS'checkRF1'
p41
I00
sS'checkRF2'
p42
I00
sS'number_of_outputs'
p43
I4
sS'checkLaser'
p44
I00
sS'checkMag'
p45
I00
sS'auto'
p46
I00
sS'num_samples'
p47
S'10000'
p48
sS'outputlabel'
p49
(lp50
S'V'
p51
ag5
ag5
aS'mwf'
p52
ag5
aS'c'
p53
ag5
ag5
aS'mwp'
p54
ag5
ag5
ag5
ag5
ag5
ag5
ag5
asS'inputlabel'
p55
(lp56
S'I'
p57
ag5
ag5
asS'filename'
p58
S'test_SampleSimulator_10MOhm_0'
p59
sS'start'
p60
(lp61
S'-10'
p62
ag5
ag5
aS'2e9'
p63
ag5
ag4
ag5
ag5
aS'-30'
p64
ag5
ag5
ag5
ag5
ag5
ag5
ag5
asS'RF2pos'
p65
I17
sS'Temppos'
p66
I19
sS'plot2d'
p67
(lp68
I01
aI00
aI00
asS'plot3d'
p69
(lp70
I00
aI00
aI00
asS'RF1pos'
p71
I17
sS'addr'
p72
(lp73
S'GPIB::XX'
p74
aS'GPIB::XX'
p75
aS'GPIB::19'
p76
aS'COMX'
p77
asS'input'
p78
(lp79
I1
aI0
aI0
asS'constant'
p80
I01
sS'order'
p81
(lp82
g22
ag5
ag5
ag4
ag5
ag22
ag5
ag5
ag5
ag5
ag5
ag5
ag5
ag5
ag5
ag5
as.