(dp0
S'inputgain'
p1
(lp2
F1.0
aS'none'
p3
ag3
asS'stop'
p4
(lp5
F10.1
aF1000.1
asS'pol'
p6
(lp7
I1
aI1
aI1
aI1
asS'outputdac'
p8
(lp9
I1
aI2
aI0
aI0
aI0
aI0
aI0
aI0
aI0
aI0
aI0
aI0
aI0
aI0
aI0
aI0
asS'samplerate'
p10
F125000.0
sS'incr'
p11
(lp12
F9.0
aF5.0
asS'inputlabel'
p13
(lp14
S'I [nA]'
p15
ag3
ag3
asS'filename'
p16
S'C16I58_IVTrace_RT'
p17
sS'start'
p18
(lp19
F1.0
aF-1000.0
ag3
ag3
ag3
ag3
ag3
ag3
ag3
ag3
ag3
ag3
ag3
ag3
ag3
ag3
asS'plot2d'
p20
I01
sS'plot3d'
p21
I00
sS'num_samples'
p22
F10000.0
sS'input'
p23
(lp24
I1
aI0
aI0
as.